target datalayout = "e-m:e-p270:32:32-p271:32:32-p272:64:64-i64:64-i128:128-f80:128-n8:16:32:64-S128"
target triple = "x86_64-pc-linux-gnu"

%class.ZRememberedSet = type { [2 x %class.ZMovableBitMap] }
%class.ZMovableBitMap = type { %class.CHeapBitMap.base, [7 x i8] }
%class.CHeapBitMap.base = type <{ %class.GrowableBitMap, i8 }>
%class.GrowableBitMap = type { %class.BitMap }
%class.BitMap = type { ptr, i64 }
%"class.BitMap::Iterator" = type { %"struct.BitMap::IteratorImpl" }
%"struct.BitMap::IteratorImpl" = type { ptr, i64, i64 }

@_ZN14ZRememberedSet8_currentE = hidden global i32 0, align 4

; Function Attrs: mustprogress nounwind uwtable
define linkonce_odr hidden noundef i32 @_Z23count_trailing_zeros_64m(i64 noundef %0) #1 comdat {
  %2 = alloca i64, align 8
  store i64 %0, ptr %2, align 8
  %3 = load i64, ptr %2, align 8
  %4 = call i64 @llvm.cttz.i64(i64 %3, i1 true)
  %5 = trunc i64 %4 to i32
  ret i32 %5
}

; Function Attrs: mustprogress nounwind uwtable
define linkonce_odr hidden noundef i64 @_ZN6BitMap21raw_to_words_align_upEm(i64 noundef %0) #1 comdat align 2 {
  %2 = alloca i64, align 8
  store i64 %0, ptr %2, align 8
  %3 = load i64, ptr %2, align 8
  %4 = add i64 %3, 63
  %5 = call noundef i64 @_ZN6BitMap23raw_to_words_align_downEm(i64 noundef %4)
  ret i64 %5
}

; Function Attrs: mustprogress nounwind uwtable
define linkonce_odr hidden noundef i64 @_ZN6BitMap23raw_to_words_align_downEm(i64 noundef %0) #1 comdat align 2 {
  %2 = alloca i64, align 8
  store i64 %0, ptr %2, align 8
  %3 = load i64, ptr %2, align 8
  %4 = lshr i64 %3, 6
  ret i64 %4
}

; Function Attrs: mustprogress nounwind uwtable
define linkonce_odr hidden void @_ZNK6BitMap12verify_limitEm(ptr noundef nonnull align 8 dereferenceable(16) %0, i64 noundef %1) #1 comdat align 2 {
  %3 = alloca ptr, align 8
  %4 = alloca i64, align 8
  store ptr %0, ptr %3, align 8
  store i64 %1, ptr %4, align 8
  ret void
}

; Function Attrs: mustprogress nounwind uwtable
define linkonce_odr hidden noundef i32 @_Z20count_trailing_zerosImTnNSt9enable_ifIXcvbsr3std11is_integralIT_EE5valueEiE4typeELi0ETnNS0_IXcvblestS1_Lm8EEiE4typeELi0EEjS1_(i64 noundef %0) #1 comdat {
  %2 = alloca i64, align 8
  store i64 %0, ptr %2, align 8
  %3 = load i64, ptr %2, align 8
  %4 = call noundef i32 @_Z23count_trailing_zeros_64m(i64 noundef %3)
  ret i32 %4
}

; Function Attrs: mustprogress nounwind uwtable
define linkonce_odr hidden noundef i64 @_ZN6BitMap9bit_indexEm(i64 noundef %0) #1 comdat align 2 {
  %2 = alloca i64, align 8
  store i64 %0, ptr %2, align 8
  %3 = load i64, ptr %2, align 8
  %4 = shl i64 %3, 6
  ret i64 %4
}

; Function Attrs: mustprogress nounwind uwtable
define linkonce_odr hidden noundef i64 @_ZNK6BitMap17to_words_align_upEm(ptr noundef nonnull align 8 dereferenceable(16) %0, i64 noundef %1) #1 comdat align 2 {
  %3 = alloca ptr, align 8
  %4 = alloca i64, align 8
  store ptr %0, ptr %3, align 8
  store i64 %1, ptr %4, align 8
  %5 = load ptr, ptr %3, align 8
  %6 = load i64, ptr %4, align 8
  call void @_ZNK6BitMap12verify_limitEm(ptr noundef nonnull align 8 dereferenceable(16) %5, i64 noundef %6)
  %7 = load i64, ptr %4, align 8
  %8 = call noundef i64 @_ZN6BitMap21raw_to_words_align_upEm(i64 noundef %7)
  ret i64 %8
}

; Function Attrs: mustprogress nounwind uwtable
define linkonce_odr hidden noundef i64 @_ZN6BitMap11bit_in_wordEm(i64 noundef %0) #1 comdat align 2 {
  %2 = alloca i64, align 8
  store i64 %0, ptr %2, align 8
  %3 = load i64, ptr %2, align 8
  %4 = and i64 %3, 63
  ret i64 %4
}

; Function Attrs: mustprogress nounwind uwtable
define linkonce_odr hidden noundef i64 @_ZNK6BitMap12flipped_wordEmm(ptr noundef nonnull align 8 dereferenceable(16) %0, i64 noundef %1, i64 noundef %2) #1 comdat align 2 {
  %4 = alloca ptr, align 8
  %5 = alloca i64, align 8
  %6 = alloca i64, align 8
  store ptr %0, ptr %4, align 8
  store i64 %1, ptr %5, align 8
  store i64 %2, ptr %6, align 8
  %7 = load ptr, ptr %4, align 8
  %8 = getelementptr inbounds %class.BitMap, ptr %7, i32 0, i32 0
  %9 = load ptr, ptr %8, align 8
  %10 = load i64, ptr %5, align 8
  %11 = getelementptr inbounds i64, ptr %9, i64 %10
  %12 = load i64, ptr %11, align 8
  %13 = load i64, ptr %6, align 8
  %14 = xor i64 %12, %13
  ret i64 %14
}

; Function Attrs: mustprogress nounwind uwtable
define linkonce_odr hidden noundef i64 @_ZNK6BitMap19to_words_align_downEm(ptr noundef nonnull align 8 dereferenceable(16) %0, i64 noundef %1) #1 comdat align 2 {
  %3 = alloca ptr, align 8
  %4 = alloca i64, align 8
  store ptr %0, ptr %3, align 8
  store i64 %1, ptr %4, align 8
  %5 = load ptr, ptr %3, align 8
  %6 = load i64, ptr %4, align 8
  call void @_ZNK6BitMap12verify_limitEm(ptr noundef nonnull align 8 dereferenceable(16) %5, i64 noundef %6)
  %7 = load i64, ptr %4, align 8
  %8 = call noundef i64 @_ZN6BitMap23raw_to_words_align_downEm(i64 noundef %7)
  ret i64 %8
}

; Function Attrs: mustprogress nounwind uwtable
define linkonce_odr hidden void @_ZNK6BitMap12verify_rangeEmm(ptr noundef nonnull align 8 dereferenceable(16) %0, i64 noundef %1, i64 noundef %2) #1 comdat align 2 {
  %4 = alloca ptr, align 8
  %5 = alloca i64, align 8
  %6 = alloca i64, align 8
  store ptr %0, ptr %4, align 8
  store i64 %1, ptr %5, align 8
  store i64 %2, ptr %6, align 8
  ret void
}

; Function Attrs: mustprogress nounwind uwtable
define linkonce_odr hidden noundef i64 @_ZNK6BitMap19find_first_bit_implILm0ELb0EEEmmm(ptr noundef nonnull align 8 dereferenceable(16) %0, i64 noundef %1, i64 noundef %2) #1 comdat align 2 {
  %4 = alloca i64, align 8
  %5 = alloca ptr, align 8
  %6 = alloca i64, align 8
  %7 = alloca i64, align 8
  %8 = alloca i64, align 8
  %9 = alloca i64, align 8
  %10 = alloca i64, align 8
  %11 = alloca i64, align 8
  %12 = alloca i64, align 8
  store ptr %0, ptr %5, align 8
  store i64 %1, ptr %6, align 8
  store i64 %2, ptr %7, align 8
  %13 = load ptr, ptr %5, align 8
  %14 = load i64, ptr %6, align 8
  %15 = load i64, ptr %7, align 8
  call void @_ZNK6BitMap12verify_rangeEmm(ptr noundef nonnull align 8 dereferenceable(16) %13, i64 noundef %14, i64 noundef %15)
  %16 = load i64, ptr %6, align 8
  %17 = load i64, ptr %7, align 8
  %18 = icmp ult i64 %16, %17
  br i1 %18, label %19, label %70

19:                                               ; preds = %3
  %20 = load i64, ptr %6, align 8
  %21 = call noundef i64 @_ZNK6BitMap19to_words_align_downEm(ptr noundef nonnull align 8 dereferenceable(16) %13, i64 noundef %20)
  store i64 %21, ptr %8, align 8
  %22 = load i64, ptr %8, align 8
  %23 = call noundef i64 @_ZNK6BitMap12flipped_wordEmm(ptr noundef nonnull align 8 dereferenceable(16) %13, i64 noundef %22, i64 noundef 0)
  %24 = load i64, ptr %6, align 8
  %25 = call noundef i64 @_ZN6BitMap11bit_in_wordEm(i64 noundef %24)
  %26 = lshr i64 %23, %25
  store i64 %26, ptr %9, align 8
  %27 = load i64, ptr %9, align 8
  %28 = and i64 %27, 1
  %29 = icmp ne i64 %28, 0
  br i1 %29, label %30, label %32

30:                                               ; preds = %19
  %31 = load i64, ptr %6, align 8
  store i64 %31, ptr %4, align 8
  br label %72

32:                                               ; preds = %19
  %33 = load i64, ptr %6, align 8
  store i64 %33, ptr %10, align 8
  %34 = load i64, ptr %9, align 8
  %35 = icmp eq i64 %34, 0
  br i1 %35, label %36, label %54

36:                                               ; preds = %32
  %37 = load i64, ptr %7, align 8
  %38 = call noundef i64 @_ZNK6BitMap17to_words_align_upEm(ptr noundef nonnull align 8 dereferenceable(16) %13, i64 noundef %37)
  store i64 %38, ptr %11, align 8
  br label %39

39:                                               ; preds = %52, %36
  %40 = load i64, ptr %8, align 8
  %41 = add i64 %40, 1
  store i64 %41, ptr %8, align 8
  %42 = load i64, ptr %11, align 8
  %43 = icmp ult i64 %41, %42
  br i1 %43, label %44, label %53

44:                                               ; preds = %39
  %45 = load i64, ptr %8, align 8
  %46 = call noundef i64 @_ZNK6BitMap12flipped_wordEmm(ptr noundef nonnull align 8 dereferenceable(16) %13, i64 noundef %45, i64 noundef 0)
  store i64 %46, ptr %9, align 8
  %47 = load i64, ptr %9, align 8
  %48 = icmp ne i64 %47, 0
  br i1 %48, label %49, label %52

49:                                               ; preds = %44
  %50 = load i64, ptr %8, align 8
  %51 = call noundef i64 @_ZN6BitMap9bit_indexEm(i64 noundef %50)
  store i64 %51, ptr %10, align 8
  br label %53

52:                                               ; preds = %44
  br label %39, !llvm.loop !8

53:                                               ; preds = %49, %39
  br label %54

54:                                               ; preds = %53, %32
  %55 = load i64, ptr %9, align 8
  %56 = icmp ne i64 %55, 0
  br i1 %56, label %57, label %69

57:                                               ; preds = %54
  %58 = load i64, ptr %10, align 8
  %59 = load i64, ptr %9, align 8
  %60 = call noundef i32 @_Z20count_trailing_zerosImTnNSt9enable_ifIXcvbsr3std11is_integralIT_EE5valueEiE4typeELi0ETnNS0_IXcvblestS1_Lm8EEiE4typeELi0EEjS1_(i64 noundef %59)
  %61 = zext i32 %60 to i64
  %62 = add i64 %58, %61
  store i64 %62, ptr %12, align 8
  %63 = load i64, ptr %12, align 8
  %64 = load i64, ptr %7, align 8
  %65 = icmp ult i64 %63, %64
  br i1 %65, label %66, label %68

66:                                               ; preds = %57
  %67 = load i64, ptr %12, align 8
  store i64 %67, ptr %4, align 8
  br label %72

68:                                               ; preds = %57
  br label %69

69:                                               ; preds = %68, %54
  br label %70

70:                                               ; preds = %69, %3
  %71 = load i64, ptr %7, align 8
  store i64 %71, ptr %4, align 8
  br label %72

72:                                               ; preds = %70, %66, %30
  %73 = load i64, ptr %4, align 8
  ret i64 %73
}

; Function Attrs: mustprogress nounwind uwtable
define linkonce_odr hidden void @_ZN6BitMap12IteratorImplC2EPKS_mm(ptr noundef nonnull align 8 dereferenceable(24) %0, ptr noundef %1, i64 noundef %2, i64 noundef %3) unnamed_addr #1 comdat align 2 {
  %5 = alloca ptr, align 8
  %6 = alloca ptr, align 8
  %7 = alloca i64, align 8
  %8 = alloca i64, align 8
  store ptr %0, ptr %5, align 8
  store ptr %1, ptr %6, align 8
  store i64 %2, ptr %7, align 8
  store i64 %3, ptr %8, align 8
  %9 = load ptr, ptr %5, align 8
  %10 = getelementptr inbounds %"struct.BitMap::IteratorImpl", ptr %9, i32 0, i32 0
  %11 = load ptr, ptr %6, align 8
  store ptr %11, ptr %10, align 8
  %12 = getelementptr inbounds %"struct.BitMap::IteratorImpl", ptr %9, i32 0, i32 1
  %13 = load i64, ptr %7, align 8
  store i64 %13, ptr %12, align 8
  %14 = getelementptr inbounds %"struct.BitMap::IteratorImpl", ptr %9, i32 0, i32 2
  %15 = load i64, ptr %8, align 8
  store i64 %15, ptr %14, align 8
  ret void
}

; Function Attrs: mustprogress nounwind uwtable
define linkonce_odr hidden noundef i64 @_ZNK6BitMap18find_first_set_bitEmm(ptr noundef nonnull align 8 dereferenceable(16) %0, i64 noundef %1, i64 noundef %2) #1 comdat align 2 {
  %4 = alloca ptr, align 8
  %5 = alloca i64, align 8
  %6 = alloca i64, align 8
  store ptr %0, ptr %4, align 8
  store i64 %1, ptr %5, align 8
  store i64 %2, ptr %6, align 8
  %7 = load ptr, ptr %4, align 8
  %8 = load i64, ptr %5, align 8
  %9 = load i64, ptr %6, align 8
  %10 = call noundef i64 @_ZNK6BitMap19find_first_bit_implILm0ELb0EEEmmm(ptr noundef nonnull align 8 dereferenceable(16) %7, i64 noundef %8, i64 noundef %9)
  ret i64 %10
}

; Function Attrs: mustprogress nounwind uwtable
define linkonce_odr hidden void @_ZN6BitMap8IteratorC2ERKS_mm(ptr noundef nonnull align 8 dereferenceable(24) %0, ptr noundef nonnull align 8 dereferenceable(16) %1, i64 noundef %2, i64 noundef %3) unnamed_addr #1 comdat align 2 {
  %5 = alloca ptr, align 8
  %6 = alloca ptr, align 8
  %7 = alloca i64, align 8
  %8 = alloca i64, align 8
  store ptr %0, ptr %5, align 8
  store ptr %1, ptr %6, align 8
  store i64 %2, ptr %7, align 8
  store i64 %3, ptr %8, align 8
  %9 = load ptr, ptr %5, align 8
  %10 = getelementptr inbounds %"class.BitMap::Iterator", ptr %9, i32 0, i32 0
  %11 = load ptr, ptr %6, align 8
  %12 = load ptr, ptr %6, align 8
  %13 = load i64, ptr %7, align 8
  %14 = load i64, ptr %8, align 8
  %15 = call noundef i64 @_ZNK6BitMap18find_first_set_bitEmm(ptr noundef nonnull align 8 dereferenceable(16) %12, i64 noundef %13, i64 noundef %14)
  %16 = load i64, ptr %8, align 8
  call void @_ZN6BitMap12IteratorImplC2EPKS_mm(ptr noundef nonnull align 8 dereferenceable(24) %10, ptr noundef %11, i64 noundef %15, i64 noundef %16)
  ret void
}

; Function Attrs: mustprogress nounwind uwtable
define linkonce_odr hidden noundef ptr @_ZN14ZRememberedSet8previousEv(ptr noundef nonnull align 8 dereferenceable(48) %0) #1 comdat align 2 {
  %2 = alloca ptr, align 8
  store ptr %0, ptr %2, align 8
  %3 = load ptr, ptr %2, align 8
  %4 = getelementptr inbounds %class.ZRememberedSet, ptr %3, i32 0, i32 0
  %5 = load i32, ptr @_ZN14ZRememberedSet8_currentE, align 4
  %6 = xor i32 %5, 1
  %7 = sext i32 %6 to i64
  %8 = getelementptr inbounds [2 x %class.ZMovableBitMap], ptr %4, i64 0, i64 %7
  ret ptr %8
}

; Function Attrs: mustprogress nounwind uwtable
define linkonce_odr hidden noundef i64 @_ZN14ZRememberedSet11to_bit_sizeEm(i64 noundef %0) #1 comdat align 2 {
  %2 = alloca i64, align 8
  store i64 %0, ptr %2, align 8
  %3 = load i64, ptr %2, align 8
  %4 = udiv i64 %3, 8
  ret i64 %4
}

; Function Attrs: mustprogress nounwind uwtable
define linkonce_odr hidden noundef i64 @_ZN14ZRememberedSet8to_indexEm(i64 noundef %0) #1 comdat align 2 {
  %2 = alloca i64, align 8
  store i64 %0, ptr %2, align 8
  %3 = load i64, ptr %2, align 8
  %4 = udiv i64 %3, 8
  ret i64 %4
}

; Function Attrs: mustprogress nounwind uwtable
define hidden void @_ZN14ZRememberedSet25iterator_limited_previousEmm(ptr dead_on_unwind noalias writable sret(%"class.BitMap::Iterator") align 8 %0, ptr noundef nonnull align 8 dereferenceable(48) %1, i64 noundef %2, i64 noundef %3) #1 align 2 {
  %5 = alloca ptr, align 8
  %6 = alloca i64, align 8
  %7 = alloca i64, align 8
  %8 = alloca i64, align 8
  %9 = alloca i64, align 8
  store ptr %1, ptr %5, align 8
  store i64 %2, ptr %6, align 8
  store i64 %3, ptr %7, align 8
  %10 = load ptr, ptr %5, align 8
  %11 = load i64, ptr %6, align 8
  %12 = call noundef i64 @_ZN14ZRememberedSet8to_indexEm(i64 noundef %11)
  store i64 %12, ptr %8, align 8
  %13 = load i64, ptr %7, align 8
  %14 = call noundef i64 @_ZN14ZRememberedSet11to_bit_sizeEm(i64 noundef %13)
  store i64 %14, ptr %9, align 8
  %15 = call noundef ptr @_ZN14ZRememberedSet8previousEv(ptr noundef nonnull align 8 dereferenceable(48) %10)
  %16 = load i64, ptr %8, align 8
  %17 = load i64, ptr %8, align 8
  %18 = load i64, ptr %9, align 8
  %19 = add i64 %17, %18
  call void @_ZN6BitMap8IteratorC2ERKS_mm(ptr noundef nonnull align 8 dereferenceable(24) %0, ptr noundef nonnull align 8 dereferenceable(16) %15, i64 noundef %16, i64 noundef %19)
  ret void
}