; Function Attrs: mustprogress nofree norecurse nosync nounwind memory(read, argmem: readwrite, inaccessiblemem: none) uwtable
define hidden void @_ZN14ZRememberedSet25iterator_limited_previousEmm(ptr dead_on_unwind noalias nocapture writable writeonly sret(%"class.BitMap::Iterator") align 8 %0, ptr noundef nonnull align 8 dereferenceable(48) %1, i64 noundef %2, i64 noundef %3) local_unnamed_addr #6 align 2 {
  %5 = lshr i64 %2, 3
  %6 = lshr i64 %3, 3
  %7 = load i32, ptr @_ZN14ZRememberedSet8_currentE, align 4
  %8 = xor i32 %7, 1
  %9 = sext i32 %8 to i64
  %10 = getelementptr inbounds [2 x %class.ZMovableBitMap], ptr %1, i64 0, i64 %9
  %11 = add nuw nsw i64 %6, %5
  %.not = icmp ult i64 %3, 8
  br i1 %.not, label %.loopexit.i.i.i, label %12

12:                                               ; preds = %4
  %13 = lshr i64 %2, 9
  %14 = load ptr, ptr %10, align 8
  %15 = getelementptr inbounds i64, ptr %14, i64 %13
  %16 = load i64, ptr %15, align 8
  %17 = and i64 %5, 63
  %18 = lshr i64 %16, %17
  %19 = and i64 %18, 1
  %.not.i.i.i = icmp eq i64 %19, 0
  br i1 %.not.i.i.i, label %20, label %_ZN6BitMap8IteratorC2ERKS_mm.exit

20:                                               ; preds = %12
  %21 = icmp eq i64 %18, 0
  br i1 %21, label %22, label %33

22:                                               ; preds = %20
  %23 = add nuw nsw i64 %11, 63
  %24 = lshr i64 %23, 6
  br label %25

25:                                               ; preds = %28, %22
  %.025.i.i.i = phi i64 [ %13, %22 ], [ %26, %28 ]
  %26 = add nuw nsw i64 %.025.i.i.i, 1
  %27 = icmp ult i64 %26, %24
  br i1 %27, label %28, label %.loopexit.i.i.i

28:                                               ; preds = %25
  %29 = getelementptr inbounds i64, ptr %14, i64 %26
  %30 = load i64, ptr %29, align 8
  %.not36.i.i.i = icmp eq i64 %30, 0
  br i1 %.not36.i.i.i, label %25, label %31, !llvm.loop !6

31:                                               ; preds = %28
  %32 = shl i64 %26, 6
  br label %33

33:                                               ; preds = %31, %20
  %.1.ph.i.i.i = phi i64 [ %18, %20 ], [ %30, %31 ]
  %.026.ph.i.i.i = phi i64 [ %5, %20 ], [ %32, %31 ]
  %34 = tail call range(i64 0, 65) i64 @llvm.cttz.i64(i64 %.1.ph.i.i.i, i1 true)
  %35 = add nuw i64 %.026.ph.i.i.i, %34
  %36 = icmp ult i64 %35, %11
  br i1 %36, label %_ZN6BitMap8IteratorC2ERKS_mm.exit, label %.loopexit.i.i.i

.loopexit.i.i.i:                                  ; preds = %25, %33, %4
  br label %_ZN6BitMap8IteratorC2ERKS_mm.exit

_ZN6BitMap8IteratorC2ERKS_mm.exit:                ; preds = %12, %33, %.loopexit.i.i.i
  %.0.i.i.i = phi i64 [ %11, %.loopexit.i.i.i ], [ %5, %12 ], [ %35, %33 ]
  store ptr %10, ptr %0, align 8
  %37 = getelementptr inbounds i8, ptr %0, i64 8
  store i64 %.0.i.i.i, ptr %37, align 8
  %38 = getelementptr inbounds i8, ptr %0, i64 16
  store i64 %11, ptr %38, align 8
  ret void
}